target datalayout = "e-m:e-p270:32:32-p271:32:32-p272:64:64-i64:64-i128:128-f80:128-n8:16:32:64-S128"
target triple = "x86_64-pc-linux-gnu"

; Function Attrs: mustprogress nounwind uwtable
define internal noundef i32 @_ZL22cmGetTotalArgumentSizeiPPc(i32 noundef %0, ptr noundef %1) #4 {
  %3 = alloca i32, align 4
  %4 = alloca ptr, align 8
  %5 = alloca i32, align 4
  %6 = alloca i32, align 4
  store i32 %0, ptr %3, align 4
  store ptr %1, ptr %4, align 8
  store i32 0, ptr %6, align 4
  store i32 0, ptr %5, align 4
  br label %7

7:                                                ; preds = %29, %2
  %8 = load i32, ptr %5, align 4
  %9 = load i32, ptr %3, align 4
  %10 = icmp slt i32 %8, %9
  br i1 %10, label %11, label %32

11:                                               ; preds = %7
  %12 = load ptr, ptr %4, align 8
  %13 = load i32, ptr %5, align 4
  %14 = sext i32 %13 to i64
  %15 = getelementptr inbounds ptr, ptr %12, i64 %14
  %16 = load ptr, ptr %15, align 8
  %17 = icmp ne ptr %16, null
  br i1 %17, label %18, label %28

18:                                               ; preds = %11
  %19 = load i32, ptr %6, align 4
  %20 = load ptr, ptr %4, align 8
  %21 = load i32, ptr %5, align 4
  %22 = sext i32 %21 to i64
  %23 = getelementptr inbounds ptr, ptr %20, i64 %22
  %24 = load ptr, ptr %23, align 8
  %25 = call i64 @strlen(ptr noundef %24) #20
  %26 = trunc i64 %25 to i32
  %27 = add nsw i32 %19, %26
  store i32 %27, ptr %6, align 4
  br label %28

28:                                               ; preds = %18, %11
  br label %29

29:                                               ; preds = %28
  %30 = load i32, ptr %5, align 4
  %31 = add nsw i32 %30, 1
  store i32 %31, ptr %5, align 4
  br label %7, !llvm.loop !11

32:                                               ; preds = %7
  %33 = load i32, ptr %6, align 4
  ret i32 %33
}