; Function Attrs: mustprogress nofree nounwind willreturn memory(read, inaccessiblemem: none) uwtable
define internal noundef i32 @_ZL22cmGetTotalArgumentSizeiPPc(i32 noundef %0, ptr nocapture noundef readonly %1) #15 {
  %3 = icmp sgt i32 %0, 0
  br i1 %3, label %.lr.ph.preheader, label %._crit_edge

.lr.ph.preheader:                                 ; preds = %2
  %wide.trip.count = zext nneg i32 %0 to i64
  br label %.lr.ph

.lr.ph:                                           ; preds = %.lr.ph.preheader, %10
  %indvars.iv = phi i64 [ 0, %.lr.ph.preheader ], [ %indvars.iv.next, %10 ]
  %.011 = phi i32 [ 0, %.lr.ph.preheader ], [ %.1, %10 ]
  %4 = getelementptr inbounds ptr, ptr %1, i64 %indvars.iv
  %5 = load ptr, ptr %4, align 8
  %.not = icmp eq ptr %5, null
  br i1 %.not, label %10, label %6

6:                                                ; preds = %.lr.ph
  %7 = tail call i64 @strlen(ptr noundef nonnull dereferenceable(1) %5) #34
  %8 = trunc i64 %7 to i32
  %9 = add nsw i32 %.011, %8
  br label %10

10:                                               ; preds = %.lr.ph, %6
  %.1 = phi i32 [ %9, %6 ], [ %.011, %.lr.ph ]
  %indvars.iv.next = add nuw nsw i64 %indvars.iv, 1
  %exitcond.not = icmp eq i64 %indvars.iv.next, %wide.trip.count
  br i1 %exitcond.not, label %._crit_edge, label %.lr.ph, !llvm.loop !82

._crit_edge:                                      ; preds = %10, %2
  %.0.lcssa = phi i32 [ 0, %2 ], [ %.1, %10 ]
  ret i32 %.0.lcssa
}